Certificate:
    Data:
        Version: 3 (0x2)
        Serial Number: 3 (0x3)
        Signature Algorithm: sha256WithRSAEncryption
        Issuer: C=JP, CN=Self Sign Intermediate CA
        Validity
            Not Before: Mar 17 03:19:26 2023 GMT
            Not After : Mar 14 03:19:26 2033 GMT
        Subject: C=JP, CN=Taro Sample/emailAddress=client06@example.com
        Subject Public Key Info:
            Public Key Algorithm: rsaEncryption
                Public-Key: (2048 bit)
                Modulus:
                    00:ab:92:13:01:75:4e:6a:b9:a0:a2:79:51:ab:ca:
                    20:ac:ce:65:97:08:c2:77:31:4b:1d:42:9c:59:31:
                    af:9c:96:5d:82:ef:ec:50:70:dd:ae:2b:2d:3e:1d:
                    75:04:98:26:dc:fd:2a:f9:41:ab:7f:69:ca:4c:d8:
                    21:61:5d:fe:3a:5f:41:d1:11:c1:fb:2c:bb:66:9e:
                    e4:44:fc:b1:17:60:07:8e:66:a5:1d:00:47:16:6a:
                    58:c4:ea:0b:8d:a9:fa:c7:a1:e7:26:09:62:a1:09:
                    01:07:e6:41:b9:9e:7f:ee:b0:4e:62:ff:9e:5a:71:
                    2c:1e:82:41:81:d5:25:97:a2:f1:9c:81:71:c8:49:
                    5e:12:40:56:9a:59:23:f7:d3:1a:0a:ad:59:28:ca:
                    9f:28:6f:4e:56:6b:b6:c2:b7:72:01:43:46:c8:1c:
                    5f:0e:95:21:7d:be:53:c8:12:b5:d7:42:99:36:02:
                    3f:ef:45:9e:60:d8:2a:79:b6:d8:2b:ae:e4:0f:bf:
                    b8:e8:bb:b7:4a:85:a7:63:ea:ca:79:9e:12:87:ba:
                    92:2d:5c:79:21:56:43:bd:b0:da:9f:9f:26:c1:f0:
                    b3:3e:e7:98:97:92:e1:5c:c3:6d:87:cf:1d:64:4a:
                    e1:12:8d:ab:a8:80:af:db:1d:1a:ae:a2:f1:7c:22:
                    62:fb
                Exponent: 65537 (0x10001)
        X509v3 extensions:
            X509v3 Basic Constraints: critical
                CA:FALSE
            X509v3 Key Usage: critical
                Digital Signature, Key Agreement
            X509v3 Extended Key Usage: critical
                TLS Web Client Authentication
            X509v3 Subject Key Identifier: 
                64:2B:88:61:C7:77:BC:A0:02:CC:60:2E:ED:AC:32:EE:2B:5C:36:EB
            X509v3 Authority Key Identifier: 
                F0:62:8A:F1:93:FA:76:8D:0F:83:29:76:ED:65:08:1F:B2:4B:15:68
            X509v3 Subject Alternative Name: 
                email:client06@example.com
    Signature Algorithm: sha256WithRSAEncryption
    Signature Value:
        47:76:ed:0c:96:be:00:03:ee:c9:a2:69:d1:fd:78:8f:e5:38:
        d6:c9:c9:2c:8b:55:a5:a3:3f:17:2b:ca:c3:46:89:5c:dd:8b:
        f6:98:cd:0e:82:bc:90:75:7a:a6:e5:03:6c:72:12:bc:b2:46:
        c0:58:65:c7:0e:1a:c9:0c:f7:0b:19:b7:38:39:2d:79:0b:e7:
        ce:8b:6b:28:f0:d0:a7:72:49:ca:7c:23:c9:c6:54:db:3a:ee:
        c8:4e:8d:aa:28:78:07:cc:85:67:0a:c5:b8:5a:45:9a:72:24:
        fa:6c:3a:87:1f:40:fe:4b:c1:61:05:50:97:bf:37:ee:be:b0:
        fa:fd:29:71:9c:09:bc:9f:1f:69:6a:f4:c5:83:1d:21:38:bb:
        8e:ea:fb:0a:52:61:38:ec:c3:83:67:b9:6b:a1:08:f5:39:44:
        85:e5:6a:5c:d6:87:cb:85:51:03:df:63:d4:22:98:a0:fe:e8:
        c4:c8:5b:3b:e3:51:7f:f3:ac:4d:21:73:46:d7:7f:27:42:cd:
        82:36:07:37:05:54:01:1e:09:e8:db:88:d1:5b:a0:71:0c:2b:
        b0:da:4d:9c:d9:35:f9:16:cc:56:62:63:bc:f2:c1:ad:02:44:
        4a:76:2d:26:bd:a8:51:26:da:d2:3c:39:82:5b:a4:c7:5a:c4:
        d4:f5:ef:74
-----BEGIN CERTIFICATE-----
MIIDjzCCAnegAwIBAgIBAzANBgkqhkiG9w0BAQsFADAxMQswCQYDVQQGEwJKUDEi
MCAGA1UEAwwZU2VsZiBTaWduIEludGVybWVkaWF0ZSBDQTAeFw0yMzAzMTcwMzE5
MjZaFw0zMzAzMTQwMzE5MjZaMEgxCzAJBgNVBAYTAkpQMRQwEgYDVQQDDAtUYXJv
IFNhbXBsZTEjMCEGCSqGSIb3DQEJARYUY2xpZW50MDZAZXhhbXBsZS5jb20wggEi
MA0GCSqGSIb3DQEBAQUAA4IBDwAwggEKAoIBAQCrkhMBdU5quaCieVGryiCszmWX
CMJ3MUsdQpxZMa+cll2C7+xQcN2uKy0+HXUEmCbc/Sr5Qat/acpM2CFhXf46X0HR
EcH7LLtmnuRE/LEXYAeOZqUdAEcWaljE6guNqfrHoecmCWKhCQEH5kG5nn/usE5i
/55acSwegkGB1SWXovGcgXHISV4SQFaaWSP30xoKrVkoyp8ob05Wa7bCt3IBQ0bI
HF8OlSF9vlPIErXXQpk2Aj/vRZ5g2Cp5ttgrruQPv7jou7dKhadj6sp5nhKHupIt
XHkhVkO9sNqfnybB8LM+55iXkuFcw22Hzx1kSuESjauogK/bHRquovF8ImL7AgMB
AAGjgZowgZcwDAYDVR0TAQH/BAIwADAOBgNVHQ8BAf8EBAMCA4gwFgYDVR0lAQH/
BAwwCgYIKwYBBQUHAwIwHQYDVR0OBBYEFGQriGHHd7ygAsxgLu2sMu4rXDbrMB8G
A1UdIwQYMBaAFPBiivGT+naND4Mpdu1lCB+ySxVoMB8GA1UdEQQYMBaBFGNsaWVu
dDA2QGV4YW1wbGUuY29tMA0GCSqGSIb3DQEBCwUAA4IBAQBHdu0Mlr4AA+7JomnR
/XiP5TjWycksi1Wloz8XK8rDRolc3Yv2mM0OgryQdXqm5QNschK8skbAWGXHDhrJ
DPcLGbc4OS15C+fOi2so8NCncknKfCPJxlTbOu7ITo2qKHgHzIVnCsW4WkWaciT6
bDqHH0D+S8FhBVCXvzfuvrD6/SlxnAm8nx9pavTFgx0hOLuO6vsKUmE47MODZ7lr
oQj1OUSF5Wpc1ofLhVED32PUIpig/ujEyFs741F/86xNIXNG138nQs2CNgc3BVQB
Hgno24jRW6BxDCuw2k2c2TX5FsxWYmO88sGtAkRKdi0mvahRJtrSPDmCW6THWsTU
9e90
-----END CERTIFICATE-----
